; ModuleID = 'source-C-CXX/61/1439.c'
source_filename = "source-C-CXX/61/1439.c"
target datalayout = "e-m:e-p270:32:32-p271:32:32-p272:64:64-i64:64-f80:128-n8:16:32:64-S128"
target triple = "x86_64-pc-linux-gnu"

; Function Attrs: nounwind sspstrong uwtable
define dso_local i32 @main() local_unnamed_addr #0 {
  %1 = tail call noalias align 16 dereferenceable_or_null(10000) i8* @malloc(i64 10000) #4
  %2 = tail call i32 (i8*, ...) bitcast (i32 (...)* @gets to i32 (i8*, ...)*)(i8* %1) #4
  br label %3

3:                                                ; preds = %28, %0
  %4 = phi i32 [ 0, %0 ], [ %30, %28 ]
  %5 = sext i32 %4 to i64
  %6 = getelementptr inbounds i8, i8* %1, i64 %5
  %7 = load i8, i8* %6, align 1, !tbaa !5
  switch i8 %7, label %28 [
    i8 0, label %31
    i8 32, label %8
  ]

8:                                                ; preds = %3
  %9 = getelementptr inbounds i8, i8* %6, i64 1
  %10 = load i8, i8* %9, align 1, !tbaa !5
  %11 = icmp eq i8 %10, 32
  br i1 %11, label %12, label %28

12:                                               ; preds = %8
  store i8 32, i8* %6, align 1, !tbaa !5
  %13 = add nsw i64 %5, 1
  %14 = getelementptr inbounds i8, i8* %1, i64 %13
  %15 = load i8, i8* %14, align 1, !tbaa !5
  %16 = icmp eq i8 %15, 0
  br i1 %16, label %26, label %17, !llvm.loop !8

17:                                               ; preds = %12, %17
  %18 = phi i8* [ %23, %17 ], [ %14, %12 ]
  %19 = phi i64 [ %22, %17 ], [ %13, %12 ]
  %20 = getelementptr inbounds i8, i8* %18, i64 1
  %21 = load i8, i8* %20, align 1, !tbaa !5
  store i8 %21, i8* %18, align 1, !tbaa !5
  %22 = add nsw i64 %19, 1
  %23 = getelementptr inbounds i8, i8* %1, i64 %22
  %24 = load i8, i8* %23, align 1, !tbaa !5
  %25 = icmp eq i8 %24, 0
  br i1 %25, label %26, label %17, !llvm.loop !8

26:                                               ; preds = %17, %12
  %27 = add nsw i32 %4, -1
  br label %28

28:                                               ; preds = %3, %26, %8
  %29 = phi i32 [ %27, %26 ], [ %4, %8 ], [ %4, %3 ]
  %30 = add nsw i32 %29, 1
  br label %3, !llvm.loop !10

31:                                               ; preds = %3
  %32 = tail call i32 @puts(i8* nonnull dereferenceable(1) %1)
  ret i32 0
}

; Function Attrs: inaccessiblememonly mustprogress nofree nounwind willreturn
declare noalias noundef align 16 i8* @malloc(i64 noundef) local_unnamed_addr #1

declare i32 @gets(...) local_unnamed_addr #2

; Function Attrs: nofree nounwind
declare noundef i32 @puts(i8* nocapture noundef readonly) local_unnamed_addr #3


!llvm.module.flags = !{!0, !1, !2, !3}
!llvm.ident = !{!4}

!0 = !{i32 1, !"wchar_size", i32 4}
!1 = !{i32 7, !"PIC Level", i32 2}
!2 = !{i32 7, !"PIE Level", i32 2}
!3 = !{i32 7, !"uwtable", i32 1}
!4 = !{!"clang version 13.0.0"}
!5 = !{!6, !6, i64 0}
!6 = !{!"omnipotent char", !7, i64 0}
!7 = !{!"Simple C/C++ TBAA"}
!8 = distinct !{!8, !9}
!9 = !{!"llvm.loop.mustprogress"}
!10 = distinct !{!10, !9}
